#include <math.h>
#include <stdio.h>
#include <stdlib.h>
#include <string.h>

void main()
{
	void in(char str[] , char substr[]);
	char str[100], substr[100];
	while ((scanf("%s%s",&str,&substr)) != EOF)
		in(str, substr);
}

void in(char str[], char substr[])
{
	int i,k,max,l;
	l=strlen(str);
	max=str[0];
	for(i=1;i<l;i++)
	{
		if(max<str[i])
		{
			max=str[i];
			k=i;
		}
	}
	for(i=0;i<=k;i++)
		printf("%c",str[i]);
	printf("%s",substr);
	for(i=k+1;i<l;i++)
		printf("%c",str[i]);
	printf("\n");
}
